target datalayout = "e-m:e-p270:32:32-p271:32:32-p272:64:64-i64:64-i128:128-f80:128-n8:16:32:64-S128"
target triple = "x86_64-pc-linux-gnu"

%struct.reassembly_table_functions = type { ptr, ptr, ptr, ptr, ptr, ptr }
%struct.tcpcl_fragment_key_t = type { ptr, i64 }

@addresses_ports_reassembly_table_functions = external constant %struct.reassembly_table_functions, align 8

; Function Attrs: null_pointer_is_valid sspstrong uwtable
define internal void @fragment_key_free_temporary(ptr noundef %0) #0 {
  %2 = alloca ptr, align 8
  %3 = alloca ptr, align 8
  store ptr %0, ptr %2, align 8
  call void @llvm.lifetime.start.p0(i64 8, ptr %3) #11
  %4 = load ptr, ptr %2, align 8
  store ptr %4, ptr %3, align 8
  %5 = load ptr, ptr %3, align 8
  %6 = icmp ne ptr %5, null
  br i1 %6, label %7, label %16

7:                                                ; preds = %1
  %8 = load ptr, ptr getelementptr inbounds nuw (%struct.reassembly_table_functions, ptr @addresses_ports_reassembly_table_functions, i32 0, i32 4), align 8
  %9 = load ptr, ptr %3, align 8
  %10 = getelementptr inbounds nuw %struct.tcpcl_fragment_key_t, ptr %9, i32 0, i32 0
  %11 = load ptr, ptr %10, align 8
  call void %8(ptr noundef %11)
  br label %12

12:                                               ; preds = %7
  %13 = load ptr, ptr %3, align 8
  call void @g_slice_free1(i64 noundef 16, ptr noundef %13)
  br label %14

14:                                               ; preds = %12
  br label %15

15:                                               ; preds = %14
  br label %16

16:                                               ; preds = %15, %1
  call void @llvm.lifetime.end.p0(i64 8, ptr %3) #11
  ret void
}